(lp0
(lp1
I10
aVWINSTON
p2
aS'19x13'
p3
aF23.0
aa(lp4
I21
aVEMILIANO
p5
aS'19x19'
p6
aF16.9
aa(lp7
I35
aVFLASH
p8
aS'21x11'
p9
aF6.6
aa(lp10
I42
aVNOOB
p11
aS'25x15'
p12
aF8.8
aa(lp13
I48
aVPRO
p14
aS'25x19'
p15
aF9.8
aa(lp16
I55
aVVADER
p17
aS'23x11'
p18
aF4.6
aa(lp19
I56
aVALEX
p20
aS'19x17'
p21
aF5.7
aa(lp22
I56
aVGAMER
p23
aS'21x17'
p24
aF6.3
aa(lp25
I72
aVLUKE
p26
aS'23x13'
p27
aF4.1
aa(lp28
I79
aVBATMAN
p29
aS'25x19'
p30
aF6.0
aa.